target datalayout = "e-m:e-p270:32:32-p271:32:32-p272:64:64-i64:64-i128:128-f80:128-n8:16:32:64-S128"
target triple = "x86_64-pc-linux-gnu"

@.str.14 = private unnamed_addr constant [27 x i8] c"../openssl/test/dtlstest.c\00", align 1
@cert = internal global ptr null, align 8
@privkey = internal global ptr null, align 8
@__const.test_just_finished.buf = private unnamed_addr constant <{ [25 x i8], [20 x i8] }> <{ [25 x i8] c"\16\FE\FD\00\00\00\00\00\00\00\00\00 \14\00\00\14\00\00\00\00\00\00\00\14", [20 x i8] zeroinitializer }>, align 16
@.str.43 = private unnamed_addr constant [88 x i8] c"create_ssl_ctx_pair(NULL, DTLS_server_method(), NULL, 0, 0, &sctx, NULL, cert, privkey)\00", align 1
@.str.44 = private unnamed_addr constant [10 x i8] c"serverssl\00", align 1
@.str.45 = private unnamed_addr constant [5 x i8] c"rbio\00", align 1
@.str.46 = private unnamed_addr constant [5 x i8] c"wbio\00", align 1
@.str.47 = private unnamed_addr constant [34 x i8] c"BIO_write(sbio, buf, sizeof(buf))\00", align 1
@.str.48 = private unnamed_addr constant [12 x i8] c"sizeof(buf)\00", align 1
@.str.49 = private unnamed_addr constant [28 x i8] c"ret = SSL_accept(serverssl)\00", align 1
@.str.50 = private unnamed_addr constant [2 x i8] c"0\00", align 1
@.str.51 = private unnamed_addr constant [30 x i8] c"SSL_get_error(serverssl, ret)\00", align 1
@.str.52 = private unnamed_addr constant [14 x i8] c"SSL_ERROR_SSL\00", align 1
@.str.53 = private unnamed_addr constant [32 x i8] c"ERR_GET_REASON(ERR_get_error())\00", align 1
@.str.54 = private unnamed_addr constant [25 x i8] c"SSL_R_UNEXPECTED_MESSAGE\00", align 1

; Function Attrs: inlinehint nounwind uwtable
define internal i32 @ERR_GET_REASON(i64 noundef %0) #4 {
  %2 = alloca i32, align 4
  %3 = alloca i64, align 8
  store i64 %0, ptr %3, align 8, !tbaa !22
  %4 = load i64, ptr %3, align 8, !tbaa !22
  %5 = and i64 %4, 2147483648
  %6 = icmp ne i64 %5, 0
  br i1 %6, label %7, label %11

7:                                                ; preds = %1
  %8 = load i64, ptr %3, align 8, !tbaa !22
  %9 = and i64 %8, 2147483647
  %10 = trunc i64 %9 to i32
  store i32 %10, ptr %2, align 4
  br label %15

11:                                               ; preds = %1
  %12 = load i64, ptr %3, align 8, !tbaa !22
  %13 = and i64 %12, 8388607
  %14 = trunc i64 %13 to i32
  store i32 %14, ptr %2, align 4
  br label %15

15:                                               ; preds = %11, %7
  %16 = load i32, ptr %2, align 4
  ret i32 %16
}

; Function Attrs: nounwind uwtable
define internal i32 @test_just_finished() #0 {
  %1 = alloca i32, align 4
  %2 = alloca i32, align 4
  %3 = alloca i32, align 4
  %4 = alloca ptr, align 8
  %5 = alloca ptr, align 8
  %6 = alloca ptr, align 8
  %7 = alloca ptr, align 8
  %8 = alloca ptr, align 8
  %9 = alloca [45 x i8], align 16
  %10 = alloca i32, align 4
  call void @llvm.lifetime.start.p0(i64 4, ptr %2) #5
  store i32 0, ptr %2, align 4, !tbaa !9
  call void @llvm.lifetime.start.p0(i64 4, ptr %3) #5
  call void @llvm.lifetime.start.p0(i64 8, ptr %4) #5
  store ptr null, ptr %4, align 8, !tbaa !11
  call void @llvm.lifetime.start.p0(i64 8, ptr %5) #5
  store ptr null, ptr %5, align 8, !tbaa !13
  call void @llvm.lifetime.start.p0(i64 8, ptr %6) #5
  store ptr null, ptr %6, align 8, !tbaa !15
  call void @llvm.lifetime.start.p0(i64 8, ptr %7) #5
  store ptr null, ptr %7, align 8, !tbaa !15
  call void @llvm.lifetime.start.p0(i64 8, ptr %8) #5
  store ptr null, ptr %8, align 8, !tbaa !15
  call void @llvm.lifetime.start.p0(i64 45, ptr %9) #5
  call void @llvm.memcpy.p0.p0.i64(ptr align 16 %9, ptr align 16 @__const.test_just_finished.buf, i64 45, i1 false)
  %11 = call ptr @DTLS_server_method()
  %12 = load ptr, ptr @cert, align 8, !tbaa !4
  %13 = load ptr, ptr @privkey, align 8, !tbaa !4
  %14 = call i32 @create_ssl_ctx_pair(ptr noundef null, ptr noundef %11, ptr noundef null, i32 noundef 0, i32 noundef 0, ptr noundef %4, ptr noundef null, ptr noundef %12, ptr noundef %13)
  %15 = icmp ne i32 %14, 0
  %16 = zext i1 %15 to i32
  %17 = call i32 @test_true(ptr noundef @.str.14, i32 noundef 425, ptr noundef @.str.43, i32 noundef %16)
  %18 = icmp ne i32 %17, 0
  br i1 %18, label %20, label %19

19:                                               ; preds = %0
  store i32 0, ptr %1, align 4
  store i32 1, ptr %10, align 4
  br label %80

20:                                               ; preds = %0
  %21 = load ptr, ptr %4, align 8, !tbaa !11
  %22 = call ptr @SSL_new(ptr noundef %21)
  store ptr %22, ptr %5, align 8, !tbaa !13
  %23 = call ptr @BIO_s_mem()
  %24 = call ptr @BIO_new(ptr noundef %23)
  store ptr %24, ptr %6, align 8, !tbaa !15
  %25 = call ptr @BIO_s_mem()
  %26 = call ptr @BIO_new(ptr noundef %25)
  store ptr %26, ptr %7, align 8, !tbaa !15
  %27 = load ptr, ptr %5, align 8, !tbaa !13
  %28 = call i32 @test_ptr(ptr noundef @.str.14, i32 noundef 438, ptr noundef @.str.44, ptr noundef %27)
  %29 = icmp ne i32 %28, 0
  br i1 %29, label %30, label %38

30:                                               ; preds = %20
  %31 = load ptr, ptr %6, align 8, !tbaa !15
  %32 = call i32 @test_ptr(ptr noundef @.str.14, i32 noundef 438, ptr noundef @.str.45, ptr noundef %31)
  %33 = icmp ne i32 %32, 0
  br i1 %33, label %34, label %38

34:                                               ; preds = %30
  %35 = load ptr, ptr %7, align 8, !tbaa !15
  %36 = call i32 @test_ptr(ptr noundef @.str.14, i32 noundef 438, ptr noundef @.str.46, ptr noundef %35)
  %37 = icmp ne i32 %36, 0
  br i1 %37, label %39, label %38

38:                                               ; preds = %34, %30, %20
  br label %72

39:                                               ; preds = %34
  %40 = load ptr, ptr %6, align 8, !tbaa !15
  store ptr %40, ptr %8, align 8, !tbaa !15
  %41 = load ptr, ptr %5, align 8, !tbaa !13
  %42 = load ptr, ptr %6, align 8, !tbaa !15
  call void @SSL_set0_rbio(ptr noundef %41, ptr noundef %42)
  %43 = load ptr, ptr %5, align 8, !tbaa !13
  %44 = load ptr, ptr %7, align 8, !tbaa !15
  call void @SSL_set0_wbio(ptr noundef %43, ptr noundef %44)
  store ptr null, ptr %7, align 8, !tbaa !15
  store ptr null, ptr %6, align 8, !tbaa !15
  %45 = load ptr, ptr %5, align 8, !tbaa !13
  call void @DTLS_set_timer_cb(ptr noundef %45, ptr noundef @timer_cb)
  %46 = load ptr, ptr %8, align 8, !tbaa !15
  %47 = getelementptr inbounds [45 x i8], ptr %9, i64 0, i64 0
  %48 = call i32 @BIO_write(ptr noundef %46, ptr noundef %47, i32 noundef 45)
  %49 = call i32 @test_int_eq(ptr noundef @.str.14, i32 noundef 447, ptr noundef @.str.47, ptr noundef @.str.48, i32 noundef %48, i32 noundef 45)
  %50 = icmp ne i32 %49, 0
  br i1 %50, label %52, label %51

51:                                               ; preds = %39
  br label %72

52:                                               ; preds = %39
  %53 = load ptr, ptr %5, align 8, !tbaa !13
  %54 = call i32 @SSL_accept(ptr noundef %53)
  store i32 %54, ptr %3, align 4, !tbaa !9
  %55 = call i32 @test_int_le(ptr noundef @.str.14, i32 noundef 451, ptr noundef @.str.49, ptr noundef @.str.50, i32 noundef %54, i32 noundef 0)
  %56 = icmp ne i32 %55, 0
  br i1 %56, label %58, label %57

57:                                               ; preds = %52
  br label %72

58:                                               ; preds = %52
  %59 = load ptr, ptr %5, align 8, !tbaa !13
  %60 = load i32, ptr %3, align 4, !tbaa !9
  %61 = call i32 @SSL_get_error(ptr noundef %59, i32 noundef %60)
  %62 = call i32 @test_int_eq(ptr noundef @.str.14, i32 noundef 455, ptr noundef @.str.51, ptr noundef @.str.52, i32 noundef %61, i32 noundef 1)
  %63 = icmp ne i32 %62, 0
  br i1 %63, label %65, label %64

64:                                               ; preds = %58
  br label %72

65:                                               ; preds = %58
  %66 = call i64 @ERR_get_error()
  %67 = call i32 @ERR_GET_REASON(i64 noundef %66)
  %68 = call i32 @test_int_eq(ptr noundef @.str.14, i32 noundef 458, ptr noundef @.str.53, ptr noundef @.str.54, i32 noundef %67, i32 noundef 244)
  %69 = icmp ne i32 %68, 0
  br i1 %69, label %71, label %70

70:                                               ; preds = %65
  br label %72

71:                                               ; preds = %65
  store i32 1, ptr %2, align 4, !tbaa !9
  br label %72

72:                                               ; preds = %71, %70, %64, %57, %51, %38
  %73 = load ptr, ptr %6, align 8, !tbaa !15
  %74 = call i32 @BIO_free(ptr noundef %73)
  %75 = load ptr, ptr %7, align 8, !tbaa !15
  %76 = call i32 @BIO_free(ptr noundef %75)
  %77 = load ptr, ptr %5, align 8, !tbaa !13
  call void @SSL_free(ptr noundef %77)
  %78 = load ptr, ptr %4, align 8, !tbaa !11
  call void @SSL_CTX_free(ptr noundef %78)
  %79 = load i32, ptr %2, align 4, !tbaa !9
  store i32 %79, ptr %1, align 4
  store i32 1, ptr %10, align 4
  br label %80

80:                                               ; preds = %72, %19
  call void @llvm.lifetime.end.p0(i64 45, ptr %9) #5
  call void @llvm.lifetime.end.p0(i64 8, ptr %8) #5
  call void @llvm.lifetime.end.p0(i64 8, ptr %7) #5
  call void @llvm.lifetime.end.p0(i64 8, ptr %6) #5
  call void @llvm.lifetime.end.p0(i64 8, ptr %5) #5
  call void @llvm.lifetime.end.p0(i64 8, ptr %4) #5
  call void @llvm.lifetime.end.p0(i64 4, ptr %3) #5
  call void @llvm.lifetime.end.p0(i64 4, ptr %2) #5
  %81 = load i32, ptr %1, align 4
  ret i32 %81
}