; Function Attrs: nounwind uwtable
define internal range(i32 0, 2) i32 @test_just_finished() #1 {
  %1 = alloca ptr, align 8
  %2 = alloca [45 x i8], align 16
  call void @llvm.lifetime.start.p0(i64 8, ptr nonnull %1) #8
  store ptr null, ptr %1, align 8, !tbaa !9
  call void @llvm.lifetime.start.p0(i64 45, ptr nonnull %2) #8
  call void @llvm.memcpy.p0.p0.i64(ptr noundef nonnull align 16 dereferenceable(45) %2, ptr noundef nonnull align 16 dereferenceable(45) @__const.test_just_finished.buf, i64 45, i1 false)
  %3 = tail call ptr @DTLS_server_method() #8
  %4 = load ptr, ptr @cert, align 8, !tbaa !4
  %5 = load ptr, ptr @privkey, align 8, !tbaa !4
  %6 = call i32 @create_ssl_ctx_pair(ptr noundef null, ptr noundef %3, ptr noundef null, i32 noundef 0, i32 noundef 0, ptr noundef nonnull %1, ptr noundef null, ptr noundef %4, ptr noundef %5) #8
  %7 = icmp ne i32 %6, 0
  %8 = zext i1 %7 to i32
  %9 = call i32 @test_true(ptr noundef nonnull @.str.14, i32 noundef 425, ptr noundef nonnull @.str.43, i32 noundef %8) #8
  %.not = icmp eq i32 %9, 0
  br i1 %.not, label %40, label %10

10:                                               ; preds = %0
  %11 = load ptr, ptr %1, align 8, !tbaa !9
  %12 = call ptr @SSL_new(ptr noundef %11) #8
  %13 = call ptr @BIO_s_mem() #8
  %14 = call ptr @BIO_new(ptr noundef %13) #8
  %15 = call ptr @BIO_s_mem() #8
  %16 = call ptr @BIO_new(ptr noundef %15) #8
  %17 = call i32 @test_ptr(ptr noundef nonnull @.str.14, i32 noundef 438, ptr noundef nonnull @.str.44, ptr noundef %12) #8
  %.not20 = icmp eq i32 %17, 0
  br i1 %.not20, label %36, label %18

18:                                               ; preds = %10
  %19 = call i32 @test_ptr(ptr noundef nonnull @.str.14, i32 noundef 438, ptr noundef nonnull @.str.45, ptr noundef %14) #8
  %.not21 = icmp eq i32 %19, 0
  br i1 %.not21, label %36, label %20

20:                                               ; preds = %18
  %21 = call i32 @test_ptr(ptr noundef nonnull @.str.14, i32 noundef 438, ptr noundef nonnull @.str.46, ptr noundef %16) #8
  %.not22 = icmp eq i32 %21, 0
  br i1 %.not22, label %36, label %22

22:                                               ; preds = %20
  call void @SSL_set0_rbio(ptr noundef %12, ptr noundef %14) #8
  call void @SSL_set0_wbio(ptr noundef %12, ptr noundef %16) #8
  call void @DTLS_set_timer_cb(ptr noundef %12, ptr noundef nonnull @timer_cb) #8
  %23 = call i32 @BIO_write(ptr noundef %14, ptr noundef nonnull %2, i32 noundef 45) #8
  %24 = call i32 @test_int_eq(ptr noundef nonnull @.str.14, i32 noundef 447, ptr noundef nonnull @.str.47, ptr noundef nonnull @.str.48, i32 noundef %23, i32 noundef 45) #8
  %.not23 = icmp eq i32 %24, 0
  br i1 %.not23, label %36, label %25

25:                                               ; preds = %22
  %26 = call i32 @SSL_accept(ptr noundef %12) #8
  %27 = call i32 @test_int_le(ptr noundef nonnull @.str.14, i32 noundef 451, ptr noundef nonnull @.str.49, ptr noundef nonnull @.str.50, i32 noundef %26, i32 noundef 0) #8
  %.not24 = icmp eq i32 %27, 0
  br i1 %.not24, label %36, label %28

28:                                               ; preds = %25
  %29 = call i32 @SSL_get_error(ptr noundef %12, i32 noundef %26) #8
  %30 = call i32 @test_int_eq(ptr noundef nonnull @.str.14, i32 noundef 455, ptr noundef nonnull @.str.51, ptr noundef nonnull @.str.52, i32 noundef %29, i32 noundef 1) #8
  %.not25 = icmp eq i32 %30, 0
  br i1 %.not25, label %36, label %31

31:                                               ; preds = %28
  %32 = call i64 @ERR_get_error() #8
  %33 = and i64 %32, 2147483648
  %.not.i = icmp eq i64 %33, 0
  %34 = trunc i64 %32 to i32
  %.0.v.i = select i1 %.not.i, i32 8388607, i32 2147483647
  %.0.i = and i32 %.0.v.i, %34
  %35 = call i32 @test_int_eq(ptr noundef nonnull @.str.14, i32 noundef 458, ptr noundef nonnull @.str.53, ptr noundef nonnull @.str.54, i32 noundef %.0.i, i32 noundef 244) #8
  %.not26 = icmp ne i32 %35, 0
  %spec.select = zext i1 %.not26 to i32
  br label %36

36:                                               ; preds = %31, %28, %25, %22, %10, %18, %20
  %.019 = phi i32 [ 0, %28 ], [ 0, %25 ], [ 0, %22 ], [ 0, %20 ], [ 0, %18 ], [ 0, %10 ], [ %spec.select, %31 ]
  %.017 = phi ptr [ null, %28 ], [ null, %25 ], [ null, %22 ], [ %14, %20 ], [ %14, %18 ], [ %14, %10 ], [ null, %31 ]
  %.0 = phi ptr [ null, %28 ], [ null, %25 ], [ null, %22 ], [ %16, %20 ], [ %16, %18 ], [ %16, %10 ], [ null, %31 ]
  %37 = call i32 @BIO_free(ptr noundef %.017) #8
  %38 = call i32 @BIO_free(ptr noundef %.0) #8
  call void @SSL_free(ptr noundef %12) #8
  %39 = load ptr, ptr %1, align 8, !tbaa !9
  call void @SSL_CTX_free(ptr noundef %39) #8
  br label %40

40:                                               ; preds = %0, %36
  %.018 = phi i32 [ %.019, %36 ], [ 0, %0 ]
  call void @llvm.lifetime.end.p0(i64 45, ptr nonnull %2) #8
  call void @llvm.lifetime.end.p0(i64 8, ptr nonnull %1) #8
  ret i32 %.018
}